(ikeras_frcnn.config
Config
p0
(dp1
S'use_vertical_flips'
p2
I01
sS'verbose'
p3
I01
sS'classifier_regr_std'
p4
(lp5
F8.0
aF8.0
aF4.0
aF4.0
asS'classifier_min_overlap'
p6
F0.1
sS'rot_90'
p7
I01
sS'num_epochs'
p8
I350
sS'class_mapping'
p9
(dp10
S'car'
p11
I0
sS'bg'
p12
I2
sS'person'
p13
I1
ssS'use_horizontal_flips'
p14
I01
sS'config_save_file'
p15
S'config_r.pickle'
p16
sS'rpn_max_overlap'
p17
F0.7
sS'network'
p18
S'resnet50'
p19
sS'img_channel_mean'
p20
(lp21
F103.939
aF116.779
aF123.68
asS'kitti_simple_label_file'
p22
S'Rinkou/rinkou/feature.txt'
p23
sS'simple_label_file'
p24
S'Rinkou/rinkou/feature.txt'
p25
sS'balanced_classes'
p26
I00
sS'anchor_box_ratios'
p27
(lp28
(lp29
I1
aI1
aa(lp30
I1
aI2
aa(lp31
I2
aI1
aasS'img_scaling_factor'
p32
F1.0
sS'data_dir'
p33
S'.data/'
p34
sS'rpn_stride'
p35
I16
sS'num_rois'
p36
I32
sS'base_net_weights'
p37
S'./resnet50_weights_tf_dim_ordering_tf_kernels.h5'
p38
sS'anchor_box_scales'
p39
(lp40
I128
aI256
aI512
asS'rpn_min_overlap'
p41
F0.3
sS'model_path'
p42
S'./rinkou_frcnn.hdf5'
p43
sS'classifier_max_overlap'
p44
F0.5
sS'std_scaling'
p45
F4.0
sS'im_size'
p46
I600
sb.
